target datalayout = "e-m:e-p270:32:32-p271:32:32-p272:64:64-i64:64-i128:128-f80:128-n8:16:32:64-S128"
target triple = "x86_64-pc-linux-gnu"

%struct.hashmap = type { ptr, ptr, ptr, i32, i32, i32, i32, i8 }
%struct.repository = type { ptr, ptr, ptr, ptr, ptr, %struct.strmap, %struct.strmap, %struct.repo_path_cache, ptr, ptr, ptr, ptr, %struct.repo_settings, ptr, ptr, ptr, ptr, ptr, ptr, i32, i32, i32, ptr, ptr, i32, i32, i8 }
%struct.strmap = type { %struct.hashmap, ptr, i8 }
%struct.repo_path_cache = type { ptr, ptr, ptr, ptr, ptr, ptr, ptr }
%struct.repo_settings = type { i32, i32, i32, i32, i32, i32, i32, i32, i32, i32, i32, i32, ptr, i32, i32, i32, i32, i32, i32, i32, i64, i64, i64 }

@.str.46 = private unnamed_addr constant [7 x i8] c"config\00", align 1
@.str.58 = private unnamed_addr constant [16 x i8] c"config.worktree\00", align 1

; Function Attrs: nounwind uwtable
define dso_local i32 @repo_config_set_multivar_gently(ptr noundef %0, ptr noundef %1, ptr noundef %2, ptr noundef %3, i32 noundef %4) #0 {
  %6 = alloca ptr, align 8
  %7 = alloca ptr, align 8
  %8 = alloca ptr, align 8
  %9 = alloca ptr, align 8
  %10 = alloca i32, align 4
  %11 = alloca ptr, align 8
  %12 = alloca i32, align 4
  store ptr %0, ptr %6, align 8, !tbaa !65
  store ptr %1, ptr %7, align 8, !tbaa !4
  store ptr %2, ptr %8, align 8, !tbaa !4
  store ptr %3, ptr %9, align 8, !tbaa !4
  store i32 %4, ptr %10, align 4, !tbaa !13
  call void @llvm.lifetime.start.p0(i64 8, ptr %11) #13
  %13 = load ptr, ptr %6, align 8, !tbaa !65
  %14 = call ptr (ptr, ptr, ...) @repo_git_path(ptr noundef %13, ptr noundef @.str.46)
  store ptr %14, ptr %11, align 8, !tbaa !4
  call void @llvm.lifetime.start.p0(i64 4, ptr %12) #13
  %15 = load ptr, ptr %6, align 8, !tbaa !65
  %16 = load ptr, ptr %11, align 8, !tbaa !4
  %17 = load ptr, ptr %7, align 8, !tbaa !4
  %18 = load ptr, ptr %8, align 8, !tbaa !4
  %19 = load ptr, ptr %9, align 8, !tbaa !4
  %20 = load i32, ptr %10, align 4, !tbaa !13
  %21 = call i32 @repo_config_set_multivar_in_file_gently(ptr noundef %15, ptr noundef %16, ptr noundef %17, ptr noundef %18, ptr noundef %19, ptr noundef null, i32 noundef %20)
  store i32 %21, ptr %12, align 4, !tbaa !13
  %22 = load ptr, ptr %11, align 8, !tbaa !4
  call void @free(ptr noundef %22) #13
  %23 = load i32, ptr %12, align 4, !tbaa !13
  call void @llvm.lifetime.end.p0(i64 4, ptr %12) #13
  call void @llvm.lifetime.end.p0(i64 8, ptr %11) #13
  ret i32 %23
}

; Function Attrs: nounwind uwtable
define dso_local i32 @repo_config_set_worktree_gently(ptr noundef %0, ptr noundef %1, ptr noundef %2) #0 {
  %4 = alloca i32, align 4
  %5 = alloca ptr, align 8
  %6 = alloca ptr, align 8
  %7 = alloca ptr, align 8
  %8 = alloca ptr, align 8
  %9 = alloca i32, align 4
  store ptr %0, ptr %5, align 8, !tbaa !65
  store ptr %1, ptr %6, align 8, !tbaa !4
  store ptr %2, ptr %7, align 8, !tbaa !4
  %10 = load ptr, ptr %5, align 8, !tbaa !65
  %11 = getelementptr inbounds nuw %struct.repository, ptr %10, i32 0, i32 24
  %12 = load i32, ptr %11, align 8, !tbaa !88
  %13 = icmp ne i32 %12, 0
  br i1 %13, label %14, label %24

14:                                               ; preds = %3
  call void @llvm.lifetime.start.p0(i64 8, ptr %8) #13
  %15 = load ptr, ptr %5, align 8, !tbaa !65
  %16 = call ptr (ptr, ptr, ...) @repo_git_path(ptr noundef %15, ptr noundef @.str.58)
  store ptr %16, ptr %8, align 8, !tbaa !4
  call void @llvm.lifetime.start.p0(i64 4, ptr %9) #13
  %17 = load ptr, ptr %5, align 8, !tbaa !65
  %18 = load ptr, ptr %8, align 8, !tbaa !4
  %19 = load ptr, ptr %6, align 8, !tbaa !4
  %20 = load ptr, ptr %7, align 8, !tbaa !4
  %21 = call i32 @repo_config_set_multivar_in_file_gently(ptr noundef %17, ptr noundef %18, ptr noundef %19, ptr noundef %20, ptr noundef null, ptr noundef null, i32 noundef 0)
  store i32 %21, ptr %9, align 4, !tbaa !13
  %22 = load ptr, ptr %8, align 8, !tbaa !4
  call void @free(ptr noundef %22) #13
  %23 = load i32, ptr %9, align 4, !tbaa !13
  store i32 %23, ptr %4, align 4
  call void @llvm.lifetime.end.p0(i64 4, ptr %9) #13
  call void @llvm.lifetime.end.p0(i64 8, ptr %8) #13
  br label %29

24:                                               ; preds = %3
  %25 = load ptr, ptr %5, align 8, !tbaa !65
  %26 = load ptr, ptr %6, align 8, !tbaa !4
  %27 = load ptr, ptr %7, align 8, !tbaa !4
  %28 = call i32 @repo_config_set_multivar_gently(ptr noundef %25, ptr noundef %26, ptr noundef %27, ptr noundef null, i32 noundef 0)
  store i32 %28, ptr %4, align 4
  br label %29

29:                                               ; preds = %24, %14
  %30 = load i32, ptr %4, align 4
  ret i32 %30
}