; Function Attrs: nounwind uwtable
define dso_local range(i32 -1, 7) i32 @repo_config_set_worktree_gently(ptr noundef %0, ptr noundef %1, ptr noundef %2) local_unnamed_addr #0 {
  %4 = getelementptr inbounds nuw i8, ptr %0, i64 448
  %5 = load i32, ptr %4, align 8, !tbaa !74
  %.not = icmp eq i32 %5, 0
  %.str.46..str.58 = select i1 %.not, ptr @.str.46, ptr @.str.58
  %6 = tail call ptr (ptr, ptr, ...) @repo_git_path(ptr noundef nonnull %0, ptr noundef nonnull %.str.46..str.58) #30
  %7 = tail call i32 @repo_config_set_multivar_in_file_gently(ptr noundef nonnull %0, ptr noundef %6, ptr noundef %1, ptr noundef %2, ptr noundef null, ptr noundef null, i32 noundef 0)
  tail call void @free(ptr noundef %6) #30
  ret i32 %7
}